target datalayout = "e-m:e-p270:32:32-p271:32:32-p272:64:64-i64:64-i128:128-f80:128-n8:16:32:64-S128"
target triple = "x86_64-unknown-linux-gnu"

%struct.btMultibodyLink = type { float, %class.btVector3, i32, %class.btQuaternion, %class.btVector3, %class.btVector3, %struct.btSpatialMotionVector, %struct.btSpatialMotionVector, [6 x %struct.btSpatialMotionVector], i32, i32, %class.btQuaternion, %class.btVector3, %class.btQuaternion, %class.btVector3, %class.btVector3, %class.btVector3, %class.btVector3, %class.btVector3, [7 x float], [7 x float], [6 x float], ptr, i32, i32, i32, i32, ptr, %class.btTransform, ptr, ptr, ptr, float, float, float, float, float, float }
%struct.btSpatialMotionVector = type { %class.btVector3, %class.btVector3 }
%class.btQuaternion = type { %class.btQuadWord }
%class.btQuadWord = type { [4 x float] }
%class.btVector3 = type { [4 x float] }
%class.btTransform = type { %class.btMatrix3x3, %class.btVector3 }
%class.btMatrix3x3 = type { [3 x %class.btVector3] }
%class.btMultiBodyConstraint = type { ptr, ptr, ptr, i32, i32, i32, i32, i32, i32, i32, i8, i32, float, %class.btAlignedObjectArray }
%class.btAlignedObjectArray = type <{ %class.btAlignedAllocator, [3 x i8], i32, i32, [4 x i8], ptr, i8, [7 x i8] }>
%class.btAlignedAllocator = type { i8 }
%class.btMultiBody = type { ptr, ptr, ptr, %class.btVector3, %class.btVector3, %class.btQuaternion, %class.btQuaternion, float, %class.btVector3, %class.btVector3, %class.btVector3, %class.btVector3, %class.btVector3, [4 x i8], %class.btAlignedObjectArray.0, %class.btAlignedObjectArray, %class.btAlignedObjectArray, %class.btAlignedObjectArray, %class.btAlignedObjectArray.4, %class.btAlignedObjectArray.8, %class.btMatrix3x3, %class.btMatrix3x3, %class.btMatrix3x3, %class.btMatrix3x3, i8, i8, i8, i8, i8, float, float, float, ptr, i32, i32, i32, float, float, i8, float, float, i8, i8, i32, i32, i8, i8, i8, i8 }
%class.btAlignedObjectArray.0 = type <{ %class.btAlignedAllocator.1, [3 x i8], i32, i32, [4 x i8], ptr, i8, [7 x i8] }>
%class.btAlignedAllocator.1 = type { i8 }
%class.btAlignedObjectArray.4 = type <{ %class.btAlignedAllocator.5, [3 x i8], i32, i32, [4 x i8], ptr, i8, [7 x i8] }>
%class.btAlignedAllocator.5 = type { i8 }
%class.btAlignedObjectArray.8 = type <{ %class.btAlignedAllocator.9, [3 x i8], i32, i32, [4 x i8], ptr, i8, [7 x i8] }>
%class.btAlignedAllocator.9 = type { i8 }

; Function Attrs: mustprogress nounwind uwtable
define linkonce_odr dso_local noundef nonnull align 4 dereferenceable(4) ptr @_ZN20btAlignedObjectArrayIfEixEi(ptr noundef nonnull align 8 dereferenceable(25) %this, i32 noundef %n) #1 comdat align 2 {
entry:
  %this.addr = alloca ptr, align 8
  %n.addr = alloca i32, align 4
  store ptr %this, ptr %this.addr, align 8
  store i32 %n, ptr %n.addr, align 4
  %this1 = load ptr, ptr %this.addr, align 8
  %m_data = getelementptr inbounds %class.btAlignedObjectArray, ptr %this1, i32 0, i32 5
  %0 = load ptr, ptr %m_data, align 8
  %1 = load i32, ptr %n.addr, align 4
  %idxprom = sext i32 %1 to i64
  %arrayidx = getelementptr inbounds float, ptr %0, i64 %idxprom
  ret ptr %arrayidx
}

; Function Attrs: mustprogress nounwind uwtable
define linkonce_odr dso_local noundef nonnull align 8 dereferenceable(688) ptr @_ZN20btAlignedObjectArrayI15btMultibodyLinkEixEi(ptr noundef nonnull align 8 dereferenceable(25) %this, i32 noundef %n) #1 comdat align 2 {
entry:
  %this.addr = alloca ptr, align 8
  %n.addr = alloca i32, align 4
  store ptr %this, ptr %this.addr, align 8
  store i32 %n, ptr %n.addr, align 4
  %this1 = load ptr, ptr %this.addr, align 8
  %m_data = getelementptr inbounds %class.btAlignedObjectArray.0, ptr %this1, i32 0, i32 5
  %0 = load ptr, ptr %m_data, align 8
  %1 = load i32, ptr %n.addr, align 4
  %idxprom = sext i32 %1 to i64
  %arrayidx = getelementptr inbounds %struct.btMultibodyLink, ptr %0, i64 %idxprom
  ret ptr %arrayidx
}

; Function Attrs: mustprogress nounwind uwtable
define linkonce_odr dso_local noundef ptr @_ZN21btMultiBodyConstraint9jacobianBEi(ptr noundef nonnull align 8 dereferenceable(96) %this, i32 noundef %row) #1 comdat align 2 {
entry:
  %this.addr = alloca ptr, align 8
  %row.addr = alloca i32, align 4
  store ptr %this, ptr %this.addr, align 8
  store i32 %row, ptr %row.addr, align 4
  %this1 = load ptr, ptr %this.addr, align 8
  %m_data = getelementptr inbounds %class.btMultiBodyConstraint, ptr %this1, i32 0, i32 13
  %m_numRows = getelementptr inbounds %class.btMultiBodyConstraint, ptr %this1, i32 0, i32 6
  %0 = load i32, ptr %m_numRows, align 4
  %1 = load i32, ptr %row.addr, align 4
  %m_jacSizeBoth = getelementptr inbounds %class.btMultiBodyConstraint, ptr %this1, i32 0, i32 8
  %2 = load i32, ptr %m_jacSizeBoth, align 4
  %mul = mul nsw i32 %1, %2
  %add = add nsw i32 %0, %mul
  %m_jacSizeA = getelementptr inbounds %class.btMultiBodyConstraint, ptr %this1, i32 0, i32 7
  %3 = load i32, ptr %m_jacSizeA, align 8
  %add2 = add nsw i32 %add, %3
  %call = call noundef nonnull align 4 dereferenceable(4) ptr @_ZN20btAlignedObjectArrayIfEixEi(ptr noundef nonnull align 8 dereferenceable(25) %m_data, i32 noundef %add2)
  ret ptr %call
}

; Function Attrs: mustprogress uwtable
define linkonce_odr dso_local noundef ptr @_ZN21btMultiBodyConstraint9jacobianAEi(ptr noundef nonnull align 8 dereferenceable(96) %this, i32 noundef %row) #2 comdat align 2 {
entry:
  %this.addr = alloca ptr, align 8
  %row.addr = alloca i32, align 4
  store ptr %this, ptr %this.addr, align 8
  store i32 %row, ptr %row.addr, align 4
  %this1 = load ptr, ptr %this.addr, align 8
  %m_data = getelementptr inbounds %class.btMultiBodyConstraint, ptr %this1, i32 0, i32 13
  %m_numRows = getelementptr inbounds %class.btMultiBodyConstraint, ptr %this1, i32 0, i32 6
  %0 = load i32, ptr %m_numRows, align 4
  %1 = load i32, ptr %row.addr, align 4
  %m_jacSizeBoth = getelementptr inbounds %class.btMultiBodyConstraint, ptr %this1, i32 0, i32 8
  %2 = load i32, ptr %m_jacSizeBoth, align 4
  %mul = mul nsw i32 %1, %2
  %add = add nsw i32 %0, %mul
  %call = call noundef nonnull align 4 dereferenceable(4) ptr @_ZN20btAlignedObjectArrayIfEixEi(ptr noundef nonnull align 8 dereferenceable(25) %m_data, i32 noundef %add)
  ret ptr %call
}

; Function Attrs: mustprogress uwtable
define linkonce_odr dso_local noundef nonnull align 8 dereferenceable(688) ptr @_ZN11btMultiBody7getLinkEi(ptr noundef nonnull align 8 dereferenceable(640) %this, i32 noundef %index) #2 comdat align 2 {
entry:
  %this.addr = alloca ptr, align 8
  %index.addr = alloca i32, align 4
  store ptr %this, ptr %this.addr, align 8
  store i32 %index, ptr %index.addr, align 4
  %this1 = load ptr, ptr %this.addr, align 8
  %m_links = getelementptr inbounds %class.btMultiBody, ptr %this1, i32 0, i32 14
  %0 = load i32, ptr %index.addr, align 4
  %call = call noundef nonnull align 8 dereferenceable(688) ptr @_ZN20btAlignedObjectArrayI15btMultibodyLinkEixEi(ptr noundef nonnull align 8 dereferenceable(25) %m_links, i32 noundef %0)
  ret ptr %call
}

; Function Attrs: mustprogress uwtable
define dso_local void @_ZN30btMultiBodySphericalJointLimit16finalizeMultiDofEv(ptr noundef nonnull align 8 dereferenceable(232) %this) unnamed_addr #2 align 2 {
entry:
  %this.addr = alloca ptr, align 8
  %linkDoF = alloca i32, align 4
  %offset = alloca i32, align 4
  store ptr %this, ptr %this.addr, align 8
  %this1 = load ptr, ptr %this.addr, align 8
  call void @_ZN21btMultiBodyConstraint25allocateJacobiansMultiDofEv(ptr noundef nonnull align 8 dereferenceable(96) %this1)
  store i32 0, ptr %linkDoF, align 4
  %m_bodyA = getelementptr inbounds %class.btMultiBodyConstraint, ptr %this1, i32 0, i32 1
  %0 = load ptr, ptr %m_bodyA, align 8
  %m_linkA = getelementptr inbounds %class.btMultiBodyConstraint, ptr %this1, i32 0, i32 3
  %1 = load i32, ptr %m_linkA, align 8
  %call = call noundef nonnull align 8 dereferenceable(688) ptr @_ZN11btMultiBody7getLinkEi(ptr noundef nonnull align 8 dereferenceable(640) %0, i32 noundef %1)
  %m_dofOffset = getelementptr inbounds %struct.btMultibodyLink, ptr %call, i32 0, i32 9
  %2 = load i32, ptr %m_dofOffset, align 8
  %3 = load i32, ptr %linkDoF, align 4
  %add = add nsw i32 %2, %3
  %add2 = add nsw i32 6, %add
  store i32 %add2, ptr %offset, align 4
  %call3 = call noundef ptr @_ZN21btMultiBodyConstraint9jacobianAEi(ptr noundef nonnull align 8 dereferenceable(96) %this1, i32 noundef 0)
  %4 = load i32, ptr %offset, align 4
  %idxprom = zext i32 %4 to i64
  %arrayidx = getelementptr inbounds float, ptr %call3, i64 %idxprom
  store float 1.000000e+00, ptr %arrayidx, align 4
  %call4 = call noundef ptr @_ZN21btMultiBodyConstraint9jacobianBEi(ptr noundef nonnull align 8 dereferenceable(96) %this1, i32 noundef 1)
  %5 = load i32, ptr %offset, align 4
  %idxprom5 = zext i32 %5 to i64
  %arrayidx6 = getelementptr inbounds float, ptr %call4, i64 %idxprom5
  store float -1.000000e+00, ptr %arrayidx6, align 4
  %m_jacSizeBoth = getelementptr inbounds %class.btMultiBodyConstraint, ptr %this1, i32 0, i32 8
  %6 = load i32, ptr %m_jacSizeBoth, align 4
  %m_numDofsFinalized = getelementptr inbounds %class.btMultiBodyConstraint, ptr %this1, i32 0, i32 11
  store i32 %6, ptr %m_numDofsFinalized, align 8
  ret void
}